target datalayout = "e-m:e-p270:32:32-p271:32:32-p272:64:64-i64:64-i128:128-f80:128-n8:16:32:64-S128"
target triple = "x86_64-pc-linux-gnu"

%class.aiVector3t = type { double, double, double }
%"struct.std::pair" = type { double, double }

@__const._ZN6Assimp3IFC15RecursiveSearchEPKNS0_5CurveERK10aiVector3tIdEddjdjj.min_diff = private unnamed_addr constant [2 x double] [double 0x7FF0000000000000, double 0x7FF0000000000000], align 16

; Function Attrs: inlinehint mustprogress nounwind uwtable
define linkonce_odr noundef double @_ZSt3absd(double noundef %0) #6 comdat {
  %2 = alloca double, align 8
  store double %0, ptr %2, align 8
  %3 = load double, ptr %2, align 8
  %4 = call double @llvm.fabs.f64(double %3)
  ret double %4
}

; Function Attrs: mustprogress nounwind uwtable
define linkonce_odr hidden void @_ZN10aiVector3tIdEC2Eddd(ptr noundef nonnull align 8 dereferenceable(24) %0, double noundef %1, double noundef %2, double noundef %3) unnamed_addr #2 comdat align 2 {
  %5 = alloca ptr, align 8
  %6 = alloca double, align 8
  %7 = alloca double, align 8
  %8 = alloca double, align 8
  store ptr %0, ptr %5, align 8
  store double %1, ptr %6, align 8
  store double %2, ptr %7, align 8
  store double %3, ptr %8, align 8
  %9 = load ptr, ptr %5, align 8
  %10 = getelementptr inbounds nuw %class.aiVector3t, ptr %9, i32 0, i32 0
  %11 = load double, ptr %6, align 8
  store double %11, ptr %10, align 8
  %12 = getelementptr inbounds nuw %class.aiVector3t, ptr %9, i32 0, i32 1
  %13 = load double, ptr %7, align 8
  store double %13, ptr %12, align 8
  %14 = getelementptr inbounds nuw %class.aiVector3t, ptr %9, i32 0, i32 2
  %15 = load double, ptr %8, align 8
  store double %15, ptr %14, align 8
  ret void
}

; Function Attrs: mustprogress uwtable
define hidden noundef double @_ZNK6Assimp3IFC5Curve23GetParametricRangeDeltaEv(ptr noundef nonnull align 8 dereferenceable(24) %0) #1 align 2 {
  %2 = alloca ptr, align 8
  %3 = alloca ptr, align 8
  %4 = alloca %"struct.std::pair", align 8
  store ptr %0, ptr %2, align 8
  %5 = load ptr, ptr %2, align 8
  call void @llvm.lifetime.start.p0(i64 8, ptr %3) #19
  call void @llvm.lifetime.start.p0(i64 16, ptr %4) #19
  %6 = load ptr, ptr %5, align 8
  %7 = getelementptr inbounds ptr, ptr %6, i64 5
  %8 = load ptr, ptr %7, align 8
  %9 = call { double, double } %8(ptr noundef nonnull align 8 dereferenceable(24) %5)
  %10 = getelementptr inbounds nuw { double, double }, ptr %4, i32 0, i32 0
  %11 = extractvalue { double, double } %9, 0
  store double %11, ptr %10, align 8
  %12 = getelementptr inbounds nuw { double, double }, ptr %4, i32 0, i32 1
  %13 = extractvalue { double, double } %9, 1
  store double %13, ptr %12, align 8
  store ptr %4, ptr %3, align 8
  %14 = load ptr, ptr %3, align 8
  %15 = getelementptr inbounds nuw %"struct.std::pair", ptr %14, i32 0, i32 1
  %16 = load double, ptr %15, align 8
  %17 = load ptr, ptr %3, align 8
  %18 = getelementptr inbounds nuw %"struct.std::pair", ptr %17, i32 0, i32 0
  %19 = load double, ptr %18, align 8
  %20 = fsub double %16, %19
  %21 = call noundef double @_ZSt3absd(double noundef %20)
  call void @llvm.lifetime.end.p0(i64 16, ptr %4) #19
  call void @llvm.lifetime.end.p0(i64 8, ptr %3) #19
  ret double %21
}

; Function Attrs: inlinehint mustprogress nounwind uwtable
define linkonce_odr hidden noundef double @_ZNK10aiVector3tIdE12SquareLengthEv(ptr noundef nonnull align 8 dereferenceable(24) %0) #6 comdat align 2 {
  %2 = alloca ptr, align 8
  store ptr %0, ptr %2, align 8
  %3 = load ptr, ptr %2, align 8
  %4 = getelementptr inbounds nuw %class.aiVector3t, ptr %3, i32 0, i32 0
  %5 = load double, ptr %4, align 8
  %6 = getelementptr inbounds nuw %class.aiVector3t, ptr %3, i32 0, i32 0
  %7 = load double, ptr %6, align 8
  %8 = getelementptr inbounds nuw %class.aiVector3t, ptr %3, i32 0, i32 1
  %9 = load double, ptr %8, align 8
  %10 = getelementptr inbounds nuw %class.aiVector3t, ptr %3, i32 0, i32 1
  %11 = load double, ptr %10, align 8
  %12 = fmul double %9, %11
  %13 = call double @llvm.fmuladd.f64(double %5, double %7, double %12)
  %14 = getelementptr inbounds nuw %class.aiVector3t, ptr %3, i32 0, i32 2
  %15 = load double, ptr %14, align 8
  %16 = getelementptr inbounds nuw %class.aiVector3t, ptr %3, i32 0, i32 2
  %17 = load double, ptr %16, align 8
  %18 = call double @llvm.fmuladd.f64(double %15, double %17, double %13)
  ret double %18
}

; Function Attrs: inlinehint mustprogress uwtable
define linkonce_odr hidden void @_ZmiIdE10aiVector3tIT_ERKS2_S4_(ptr dead_on_unwind noalias writable sret(%class.aiVector3t) align 8 %0, ptr noundef nonnull align 8 dereferenceable(24) %1, ptr noundef nonnull align 8 dereferenceable(24) %2) #8 comdat {
  %4 = alloca ptr, align 8
  %5 = alloca ptr, align 8
  store ptr %1, ptr %4, align 8
  store ptr %2, ptr %5, align 8
  %6 = load ptr, ptr %4, align 8
  %7 = getelementptr inbounds nuw %class.aiVector3t, ptr %6, i32 0, i32 0
  %8 = load double, ptr %7, align 8
  %9 = load ptr, ptr %5, align 8
  %10 = getelementptr inbounds nuw %class.aiVector3t, ptr %9, i32 0, i32 0
  %11 = load double, ptr %10, align 8
  %12 = fsub double %8, %11
  %13 = load ptr, ptr %4, align 8
  %14 = getelementptr inbounds nuw %class.aiVector3t, ptr %13, i32 0, i32 1
  %15 = load double, ptr %14, align 8
  %16 = load ptr, ptr %5, align 8
  %17 = getelementptr inbounds nuw %class.aiVector3t, ptr %16, i32 0, i32 1
  %18 = load double, ptr %17, align 8
  %19 = fsub double %15, %18
  %20 = load ptr, ptr %4, align 8
  %21 = getelementptr inbounds nuw %class.aiVector3t, ptr %20, i32 0, i32 2
  %22 = load double, ptr %21, align 8
  %23 = load ptr, ptr %5, align 8
  %24 = getelementptr inbounds nuw %class.aiVector3t, ptr %23, i32 0, i32 2
  %25 = load double, ptr %24, align 8
  %26 = fsub double %22, %25
  call void @_ZN10aiVector3tIdEC2Eddd(ptr noundef nonnull align 8 dereferenceable(24) %0, double noundef %12, double noundef %19, double noundef %26)
  ret void
}

; Function Attrs: mustprogress nounwind uwtable
define linkonce_odr noundef double @_ZNSt14numeric_limitsIdE8infinityEv() #2 comdat align 2 {
  ret double 0x7FF0000000000000
}

; Function Attrs: mustprogress uwtable
define hidden noundef double @_ZN6Assimp3IFC15RecursiveSearchEPKNS0_5CurveERK10aiVector3tIdEddjdjj(ptr noundef %0, ptr noundef nonnull align 8 dereferenceable(24) %1, double noundef %2, double noundef %3, i32 noundef %4, double noundef %5, i32 noundef %6, i32 noundef %7) #1 {
  %9 = alloca double, align 8
  %10 = alloca ptr, align 8
  %11 = alloca ptr, align 8
  %12 = alloca double, align 8
  %13 = alloca double, align 8
  %14 = alloca i32, align 4
  %15 = alloca double, align 8
  %16 = alloca i32, align 4
  %17 = alloca i32, align 4
  %18 = alloca double, align 8
  %19 = alloca double, align 8
  %20 = alloca [2 x double], align 16
  %21 = alloca [2 x double], align 16
  %22 = alloca double, align 8
  %23 = alloca i32, align 4
  %24 = alloca double, align 8
  %25 = alloca %class.aiVector3t, align 8
  %26 = alloca %class.aiVector3t, align 8
  %27 = alloca i32, align 4
  %28 = alloca ptr, align 8
  %29 = alloca %"struct.std::pair", align 8
  %30 = alloca double, align 8
  %31 = alloca %class.aiVector3t, align 8
  %32 = alloca %class.aiVector3t, align 8
  %33 = alloca double, align 8
  store ptr %0, ptr %10, align 8
  store ptr %1, ptr %11, align 8
  store double %2, ptr %12, align 8
  store double %3, ptr %13, align 8
  store i32 %4, ptr %14, align 4
  store double %5, ptr %15, align 8
  store i32 %6, ptr %16, align 4
  store i32 %7, ptr %17, align 4
  call void @llvm.lifetime.start.p0(i64 8, ptr %18) #19
  %34 = load double, ptr %13, align 8
  %35 = load double, ptr %12, align 8
  %36 = fsub double %34, %35
  %37 = load i32, ptr %14, align 4
  %38 = uitofp i32 %37 to double
  %39 = fdiv double %36, %38
  store double %39, ptr %18, align 8
  call void @llvm.lifetime.start.p0(i64 8, ptr %19) #19
  %40 = call noundef double @_ZNSt14numeric_limitsIdE8infinityEv() #19
  store double %40, ptr %19, align 8
  call void @llvm.lifetime.start.p0(i64 16, ptr %20) #19
  %41 = load double, ptr %12, align 8
  store double %41, ptr %20, align 8
  %42 = getelementptr inbounds double, ptr %20, i64 1
  %43 = load double, ptr %13, align 8
  store double %43, ptr %42, align 8
  call void @llvm.lifetime.start.p0(i64 16, ptr %21) #19
  call void @llvm.memcpy.p0.p0.i64(ptr align 16 %21, ptr align 16 @__const._ZN6Assimp3IFC15RecursiveSearchEPKNS0_5CurveERK10aiVector3tIdEddjdjj.min_diff, i64 16, i1 false)
  call void @llvm.lifetime.start.p0(i64 8, ptr %22) #19
  %44 = load double, ptr %12, align 8
  store double %44, ptr %22, align 8
  call void @llvm.lifetime.start.p0(i64 4, ptr %23) #19
  store i32 0, ptr %23, align 4
  br label %45

45:                                               ; preds = %85, %8
  %46 = load i32, ptr %23, align 4
  %47 = load i32, ptr %14, align 4
  %48 = icmp ult i32 %46, %47
  br i1 %48, label %50, label %49

49:                                               ; preds = %45
  call void @llvm.lifetime.end.p0(i64 4, ptr %23) #19
  br label %91

50:                                               ; preds = %45
  call void @llvm.lifetime.start.p0(i64 8, ptr %24) #19
  call void @llvm.lifetime.start.p0(i64 24, ptr %25) #19
  call void @llvm.lifetime.start.p0(i64 24, ptr %26) #19
  %51 = load ptr, ptr %10, align 8
  %52 = load double, ptr %22, align 8
  %53 = load ptr, ptr %51, align 8
  %54 = getelementptr inbounds ptr, ptr %53, i64 3
  %55 = load ptr, ptr %54, align 8
  call void %55(ptr dead_on_unwind writable sret(%class.aiVector3t) align 8 %26, ptr noundef nonnull align 8 dereferenceable(24) %51, double noundef %52)
  %56 = load ptr, ptr %11, align 8
  call void @_ZmiIdE10aiVector3tIT_ERKS2_S4_(ptr dead_on_unwind writable sret(%class.aiVector3t) align 8 %25, ptr noundef nonnull align 8 dereferenceable(24) %26, ptr noundef nonnull align 8 dereferenceable(24) %56)
  %57 = call noundef double @_ZNK10aiVector3tIdE12SquareLengthEv(ptr noundef nonnull align 8 dereferenceable(24) %25)
  call void @llvm.lifetime.end.p0(i64 24, ptr %26) #19
  call void @llvm.lifetime.end.p0(i64 24, ptr %25) #19
  store double %57, ptr %24, align 8
  %58 = load double, ptr %24, align 8
  %59 = getelementptr inbounds [2 x double], ptr %21, i64 0, i64 0
  %60 = load double, ptr %59, align 16
  %61 = fcmp olt double %58, %60
  br i1 %61, label %62, label %73

62:                                               ; preds = %50
  %63 = getelementptr inbounds [2 x double], ptr %21, i64 0, i64 0
  %64 = load double, ptr %63, align 16
  %65 = getelementptr inbounds [2 x double], ptr %21, i64 0, i64 1
  store double %64, ptr %65, align 8
  %66 = getelementptr inbounds [2 x double], ptr %20, i64 0, i64 0
  %67 = load double, ptr %66, align 16
  %68 = getelementptr inbounds [2 x double], ptr %20, i64 0, i64 1
  store double %67, ptr %68, align 8
  %69 = load double, ptr %24, align 8
  %70 = getelementptr inbounds [2 x double], ptr %21, i64 0, i64 0
  store double %69, ptr %70, align 16
  %71 = load double, ptr %22, align 8
  %72 = getelementptr inbounds [2 x double], ptr %20, i64 0, i64 0
  store double %71, ptr %72, align 16
  br label %84

73:                                               ; preds = %50
  %74 = load double, ptr %24, align 8
  %75 = getelementptr inbounds [2 x double], ptr %21, i64 0, i64 1
  %76 = load double, ptr %75, align 8
  %77 = fcmp olt double %74, %76
  br i1 %77, label %78, label %83

78:                                               ; preds = %73
  %79 = load double, ptr %24, align 8
  %80 = getelementptr inbounds [2 x double], ptr %21, i64 0, i64 1
  store double %79, ptr %80, align 8
  %81 = load double, ptr %22, align 8
  %82 = getelementptr inbounds [2 x double], ptr %20, i64 0, i64 1
  store double %81, ptr %82, align 8
  br label %83

83:                                               ; preds = %78, %73
  br label %84

84:                                               ; preds = %83, %62
  call void @llvm.lifetime.end.p0(i64 8, ptr %24) #19
  br label %85

85:                                               ; preds = %84
  %86 = load i32, ptr %23, align 4
  %87 = add i32 %86, 1
  store i32 %87, ptr %23, align 4
  %88 = load double, ptr %18, align 8
  %89 = load double, ptr %22, align 8
  %90 = fadd double %89, %88
  store double %90, ptr %22, align 8
  br label %45, !llvm.loop !5

91:                                               ; preds = %49
  %92 = load double, ptr %12, align 8
  %93 = getelementptr inbounds [2 x double], ptr %20, i64 0, i64 0
  %94 = load double, ptr %93, align 16
  %95 = fsub double %92, %94
  %96 = call double @llvm.fabs.f64(double %95)
  %97 = load double, ptr %15, align 8
  %98 = fcmp olt double %96, %97
  br i1 %98, label %103, label %99

99:                                               ; preds = %91
  %100 = load i32, ptr %16, align 4
  %101 = load i32, ptr %17, align 4
  %102 = icmp uge i32 %100, %101
  br i1 %102, label %103, label %106

103:                                              ; preds = %99, %91
  %104 = getelementptr inbounds [2 x double], ptr %20, i64 0, i64 0
  %105 = load double, ptr %104, align 16
  store double %105, ptr %9, align 8
  store i32 1, ptr %27, align 4
  br label %181

106:                                              ; preds = %99
  %107 = load ptr, ptr %10, align 8
  %108 = load ptr, ptr %107, align 8
  %109 = getelementptr inbounds ptr, ptr %108, i64 2
  %110 = load ptr, ptr %109, align 8
  %111 = call noundef zeroext i1 %110(ptr noundef nonnull align 8 dereferenceable(24) %107)
  br i1 %111, label %112, label %168

112:                                              ; preds = %106
  %113 = getelementptr inbounds [2 x double], ptr %20, i64 0, i64 0
  %114 = load double, ptr %113, align 16
  %115 = getelementptr inbounds [2 x double], ptr %20, i64 0, i64 1
  %116 = load double, ptr %115, align 8
  %117 = fsub double %114, %116
  %118 = call double @llvm.fabs.f64(double %117)
  %119 = load ptr, ptr %10, align 8
  %120 = call noundef double @_ZNK6Assimp3IFC5Curve23GetParametricRangeDeltaEv(ptr noundef nonnull align 8 dereferenceable(24) %119)
  %121 = fmul double %120, 5.000000e-01
  %122 = fcmp ogt double %118, %121
  br i1 %122, label %123, label %168

123:                                              ; preds = %112
  call void @llvm.lifetime.start.p0(i64 8, ptr %28) #19
  call void @llvm.lifetime.start.p0(i64 16, ptr %29) #19
  %124 = load ptr, ptr %10, align 8
  %125 = load ptr, ptr %124, align 8
  %126 = getelementptr inbounds ptr, ptr %125, i64 5
  %127 = load ptr, ptr %126, align 8
  %128 = call { double, double } %127(ptr noundef nonnull align 8 dereferenceable(24) %124)
  %129 = getelementptr inbounds nuw { double, double }, ptr %29, i32 0, i32 0
  %130 = extractvalue { double, double } %128, 0
  store double %130, ptr %129, align 8
  %131 = getelementptr inbounds nuw { double, double }, ptr %29, i32 0, i32 1
  %132 = extractvalue { double, double } %128, 1
  store double %132, ptr %131, align 8
  store ptr %29, ptr %28, align 8
  call void @llvm.lifetime.start.p0(i64 8, ptr %30) #19
  call void @llvm.lifetime.start.p0(i64 24, ptr %31) #19
  call void @llvm.lifetime.start.p0(i64 24, ptr %32) #19
  %133 = load ptr, ptr %10, align 8
  %134 = load ptr, ptr %28, align 8
  %135 = getelementptr inbounds nuw %"struct.std::pair", ptr %134, i32 0, i32 0
  %136 = load double, ptr %135, align 8
  %137 = load ptr, ptr %133, align 8
  %138 = getelementptr inbounds ptr, ptr %137, i64 3
  %139 = load ptr, ptr %138, align 8
  call void %139(ptr dead_on_unwind writable sret(%class.aiVector3t) align 8 %32, ptr noundef nonnull align 8 dereferenceable(24) %133, double noundef %136)
  %140 = load ptr, ptr %11, align 8
  call void @_ZmiIdE10aiVector3tIT_ERKS2_S4_(ptr dead_on_unwind writable sret(%class.aiVector3t) align 8 %31, ptr noundef nonnull align 8 dereferenceable(24) %32, ptr noundef nonnull align 8 dereferenceable(24) %140)
  %141 = call noundef double @_ZNK10aiVector3tIdE12SquareLengthEv(ptr noundef nonnull align 8 dereferenceable(24) %31)
  call void @llvm.lifetime.end.p0(i64 24, ptr %32) #19
  call void @llvm.lifetime.end.p0(i64 24, ptr %31) #19
  store double %141, ptr %30, align 8
  %142 = load double, ptr %30, align 8
  %143 = getelementptr inbounds [2 x double], ptr %21, i64 0, i64 0
  %144 = load double, ptr %143, align 16
  %145 = fcmp olt double %142, %144
  br i1 %145, label %146, label %167

146:                                              ; preds = %123
  call void @llvm.lifetime.start.p0(i64 8, ptr %33) #19
  %147 = getelementptr inbounds [2 x double], ptr %20, i64 0, i64 0
  %148 = load double, ptr %147, align 16
  store double %148, ptr %33, align 8
  %149 = getelementptr inbounds [2 x double], ptr %20, i64 0, i64 1
  %150 = load double, ptr %149, align 8
  %151 = getelementptr inbounds [2 x double], ptr %20, i64 0, i64 0
  %152 = load double, ptr %151, align 16
  %153 = fcmp ogt double %150, %152
  br i1 %153, label %154, label %158

154:                                              ; preds = %146
  %155 = load ptr, ptr %28, align 8
  %156 = getelementptr inbounds nuw %"struct.std::pair", ptr %155, i32 0, i32 0
  %157 = load double, ptr %156, align 8
  br label %162

158:                                              ; preds = %146
  %159 = load ptr, ptr %28, align 8
  %160 = getelementptr inbounds nuw %"struct.std::pair", ptr %159, i32 0, i32 1
  %161 = load double, ptr %160, align 8
  br label %162

162:                                              ; preds = %158, %154
  %163 = phi double [ %157, %154 ], [ %161, %158 ]
  %164 = getelementptr inbounds [2 x double], ptr %20, i64 0, i64 0
  store double %163, ptr %164, align 16
  %165 = load double, ptr %33, align 8
  %166 = getelementptr inbounds [2 x double], ptr %20, i64 0, i64 1
  store double %165, ptr %166, align 8
  call void @llvm.lifetime.end.p0(i64 8, ptr %33) #19
  br label %167

167:                                              ; preds = %162, %123
  call void @llvm.lifetime.end.p0(i64 8, ptr %30) #19
  call void @llvm.lifetime.end.p0(i64 16, ptr %29) #19
  call void @llvm.lifetime.end.p0(i64 8, ptr %28) #19
  br label %168

168:                                              ; preds = %167, %112, %106
  %169 = load ptr, ptr %10, align 8
  %170 = load ptr, ptr %11, align 8
  %171 = getelementptr inbounds [2 x double], ptr %20, i64 0, i64 0
  %172 = load double, ptr %171, align 16
  %173 = getelementptr inbounds [2 x double], ptr %20, i64 0, i64 1
  %174 = load double, ptr %173, align 8
  %175 = load i32, ptr %14, align 4
  %176 = load double, ptr %15, align 8
  %177 = load i32, ptr %16, align 4
  %178 = add i32 %177, 1
  %179 = load i32, ptr %17, align 4
  %180 = call noundef double @_ZN6Assimp3IFC15RecursiveSearchEPKNS0_5CurveERK10aiVector3tIdEddjdjj(ptr noundef %169, ptr noundef nonnull align 8 dereferenceable(24) %170, double noundef %172, double noundef %174, i32 noundef %175, double noundef %176, i32 noundef %178, i32 noundef %179)
  store double %180, ptr %9, align 8
  store i32 1, ptr %27, align 4
  br label %181

181:                                              ; preds = %168, %103
  call void @llvm.lifetime.end.p0(i64 8, ptr %22) #19
  call void @llvm.lifetime.end.p0(i64 16, ptr %21) #19
  call void @llvm.lifetime.end.p0(i64 16, ptr %20) #19
  call void @llvm.lifetime.end.p0(i64 8, ptr %19) #19
  call void @llvm.lifetime.end.p0(i64 8, ptr %18) #19
  %182 = load double, ptr %9, align 8
  ret double %182
}