; Function Attrs: mustprogress uwtable
define hidden noundef double @_ZN6Assimp3IFC15RecursiveSearchEPKNS0_5CurveERK10aiVector3tIdEddjdjj(ptr noundef %0, ptr noundef nonnull readonly align 8 captures(none) dereferenceable(24) %1, double noundef %2, double noundef %3, i32 noundef %4, double noundef %5, i32 noundef %6, i32 noundef %7) local_unnamed_addr #1 {
  %9 = alloca %class.aiVector3t, align 8
  %10 = alloca %class.aiVector3t, align 8
  %11 = fsub double %3, %2
  %12 = uitofp i32 %4 to double
  %13 = fdiv double %11, %12
  %.not70 = icmp eq i32 %4, 0
  br i1 %.not70, label %._crit_edge, label %.lr.ph

.lr.ph:                                           ; preds = %8
  %14 = getelementptr inbounds nuw i8, ptr %9, i64 8
  %15 = getelementptr inbounds nuw i8, ptr %1, i64 8
  %16 = getelementptr inbounds nuw i8, ptr %9, i64 16
  %17 = getelementptr inbounds nuw i8, ptr %1, i64 16
  br label %21

._crit_edge:                                      ; preds = %41, %8
  %.sroa.0.0.lcssa = phi double [ 0x7FF0000000000000, %8 ], [ %.sroa.0.1, %41 ]
  %.sroa.016.0.lcssa = phi double [ %2, %8 ], [ %.sroa.016.1, %41 ]
  %.sroa.12.0.lcssa = phi double [ %3, %8 ], [ %.sroa.12.1, %41 ]
  %18 = fsub double %2, %.sroa.016.0.lcssa
  %19 = call double @llvm.fabs.f64(double %18)
  %20 = fcmp uge double %19, %5
  %.not = icmp ult i32 %6, %7
  %or.cond = and i1 %.not, %20
  br i1 %or.cond, label %44, label %93

21:                                               ; preds = %.lr.ph, %41
  %.sroa.12.067 = phi double [ %3, %.lr.ph ], [ %.sroa.12.1, %41 ]
  %.sroa.016.066 = phi double [ %2, %.lr.ph ], [ %.sroa.016.1, %41 ]
  %.sroa.7.065 = phi double [ 0x7FF0000000000000, %.lr.ph ], [ %.sroa.7.1, %41 ]
  %.05164 = phi i32 [ 0, %.lr.ph ], [ %42, %41 ]
  %.05263 = phi double [ %2, %.lr.ph ], [ %43, %41 ]
  %.sroa.0.062 = phi double [ 0x7FF0000000000000, %.lr.ph ], [ %.sroa.0.1, %41 ]
  call void @llvm.lifetime.start.p0(i64 24, ptr nonnull %9) #31
  %22 = load ptr, ptr %0, align 8
  %23 = getelementptr inbounds nuw i8, ptr %22, i64 24
  %24 = load ptr, ptr %23, align 8
  call void %24(ptr dead_on_unwind nonnull writable sret(%class.aiVector3t) align 8 %9, ptr noundef nonnull align 8 dereferenceable(24) %0, double noundef %.05263)
  %25 = load double, ptr %9, align 8, !noalias !14
  %26 = load double, ptr %1, align 8, !noalias !14
  %27 = fsub double %25, %26
  %28 = load double, ptr %14, align 8, !noalias !14
  %29 = load double, ptr %15, align 8, !noalias !14
  %30 = fsub double %28, %29
  %31 = load double, ptr %16, align 8, !noalias !14
  %32 = load double, ptr %17, align 8, !noalias !14
  %33 = fsub double %31, %32
  %34 = fmul double %30, %30
  %35 = call double @llvm.fmuladd.f64(double %27, double %27, double %34)
  %36 = call noundef double @llvm.fmuladd.f64(double %33, double %33, double %35)
  call void @llvm.lifetime.end.p0(i64 24, ptr nonnull %9) #31
  %37 = fcmp olt double %36, %.sroa.0.062
  br i1 %37, label %41, label %38

38:                                               ; preds = %21
  %39 = fcmp olt double %36, %.sroa.7.065
  br i1 %39, label %40, label %41

40:                                               ; preds = %38
  br label %41

41:                                               ; preds = %21, %38, %40
  %.sroa.0.1 = phi double [ %.sroa.0.062, %40 ], [ %.sroa.0.062, %38 ], [ %36, %21 ]
  %.sroa.7.1 = phi double [ %36, %40 ], [ %.sroa.7.065, %38 ], [ %.sroa.0.062, %21 ]
  %.sroa.016.1 = phi double [ %.sroa.016.066, %40 ], [ %.sroa.016.066, %38 ], [ %.05263, %21 ]
  %.sroa.12.1 = phi double [ %.05263, %40 ], [ %.sroa.12.067, %38 ], [ %.sroa.016.066, %21 ]
  %42 = add nuw i32 %.05164, 1
  %43 = fadd double %13, %.05263
  %exitcond.not = icmp eq i32 %42, %4
  br i1 %exitcond.not, label %._crit_edge, label %21, !llvm.loop !17

44:                                               ; preds = %._crit_edge
  %45 = load ptr, ptr %0, align 8
  %46 = getelementptr inbounds nuw i8, ptr %45, i64 16
  %47 = load ptr, ptr %46, align 8
  %48 = call noundef zeroext i1 %47(ptr noundef nonnull align 8 dereferenceable(24) %0)
  br i1 %48, label %49, label %90

49:                                               ; preds = %44
  %50 = fsub double %.sroa.016.0.lcssa, %.sroa.12.0.lcssa
  %51 = call double @llvm.fabs.f64(double %50)
  %52 = load ptr, ptr %0, align 8
  %53 = getelementptr inbounds nuw i8, ptr %52, i64 40
  %54 = load ptr, ptr %53, align 8
  %55 = call { double, double } %54(ptr noundef nonnull align 8 dereferenceable(24) %0)
  %56 = extractvalue { double, double } %55, 0
  %57 = extractvalue { double, double } %55, 1
  %58 = fsub double %57, %56
  %59 = call noundef double @llvm.fabs.f64(double %58)
  %60 = fmul double %59, 5.000000e-01
  %61 = fcmp ogt double %51, %60
  br i1 %61, label %62, label %90

62:                                               ; preds = %49
  %63 = load ptr, ptr %0, align 8
  %64 = getelementptr inbounds nuw i8, ptr %63, i64 40
  %65 = load ptr, ptr %64, align 8
  %66 = call { double, double } %65(ptr noundef nonnull align 8 dereferenceable(24) %0)
  %67 = extractvalue { double, double } %66, 0
  %68 = extractvalue { double, double } %66, 1
  call void @llvm.lifetime.start.p0(i64 24, ptr nonnull %10) #31
  %69 = load ptr, ptr %0, align 8
  %70 = getelementptr inbounds nuw i8, ptr %69, i64 24
  %71 = load ptr, ptr %70, align 8
  call void %71(ptr dead_on_unwind nonnull writable sret(%class.aiVector3t) align 8 %10, ptr noundef nonnull align 8 dereferenceable(24) %0, double noundef %67)
  %72 = load double, ptr %10, align 8, !noalias !18
  %73 = load double, ptr %1, align 8, !noalias !18
  %74 = fsub double %72, %73
  %75 = getelementptr inbounds nuw i8, ptr %10, i64 8
  %76 = load double, ptr %75, align 8, !noalias !18
  %77 = getelementptr inbounds nuw i8, ptr %1, i64 8
  %78 = load double, ptr %77, align 8, !noalias !18
  %79 = fsub double %76, %78
  %80 = getelementptr inbounds nuw i8, ptr %10, i64 16
  %81 = load double, ptr %80, align 8, !noalias !18
  %82 = getelementptr inbounds nuw i8, ptr %1, i64 16
  %83 = load double, ptr %82, align 8, !noalias !18
  %84 = fsub double %81, %83
  %85 = fmul double %79, %79
  %86 = call double @llvm.fmuladd.f64(double %74, double %74, double %85)
  %87 = call noundef double @llvm.fmuladd.f64(double %84, double %84, double %86)
  call void @llvm.lifetime.end.p0(i64 24, ptr nonnull %10) #31
  %88 = fcmp olt double %87, %.sroa.0.0.lcssa
  %89 = fcmp ogt double %.sroa.12.0.lcssa, %.sroa.016.0.lcssa
  %. = select i1 %89, double %67, double %68
  %.sroa.016.3 = select i1 %88, double %., double %.sroa.016.0.lcssa
  %.sroa.12.3 = select i1 %88, double %.sroa.016.0.lcssa, double %.sroa.12.0.lcssa
  br label %90

90:                                               ; preds = %62, %49, %44
  %.sroa.016.2 = phi double [ %.sroa.016.3, %62 ], [ %.sroa.016.0.lcssa, %49 ], [ %.sroa.016.0.lcssa, %44 ]
  %.sroa.12.2 = phi double [ %.sroa.12.3, %62 ], [ %.sroa.12.0.lcssa, %49 ], [ %.sroa.12.0.lcssa, %44 ]
  %91 = add nuw i32 %6, 1
  %92 = call noundef double @_ZN6Assimp3IFC15RecursiveSearchEPKNS0_5CurveERK10aiVector3tIdEddjdjj(ptr noundef nonnull %0, ptr noundef nonnull align 8 dereferenceable(24) %1, double noundef %.sroa.016.2, double noundef %.sroa.12.2, i32 noundef %4, double noundef %5, i32 noundef %91, i32 noundef %7)
  br label %93

93:                                               ; preds = %._crit_edge, %90
  %.0 = phi double [ %92, %90 ], [ %.sroa.016.0.lcssa, %._crit_edge ]
  ret double %.0
}